target datalayout = "e-m:e-p270:32:32-p271:32:32-p272:64:64-i64:64-i128:128-f80:128-n8:16:32:64-S128"
target triple = "x86_64-pc-linux-gnu"

@.str.33 = private unnamed_addr constant [15 x i8] c"nil or boolean\00", align 1

; Function Attrs: mustprogress uwtable
define internal noundef i32 @_ZL13luaB_newproxyP9lua_State(ptr noundef %0) #0 {
  %2 = alloca ptr, align 8
  %3 = alloca i32, align 4
  %4 = alloca i8, align 1
  store ptr %0, ptr %2, align 8
  %5 = load ptr, ptr %2, align 8
  %6 = call noundef i32 @_Z8lua_typeP9lua_Statei(ptr noundef %5, i32 noundef 1)
  store i32 %6, ptr %3, align 4
  %7 = load i32, ptr %3, align 4
  %8 = icmp eq i32 %7, -1
  br i1 %8, label %15, label %9

9:                                                ; preds = %1
  %10 = load i32, ptr %3, align 4
  %11 = icmp eq i32 %10, 0
  br i1 %11, label %15, label %12

12:                                               ; preds = %9
  %13 = load i32, ptr %3, align 4
  %14 = icmp eq i32 %13, 1
  br i1 %14, label %15, label %16

15:                                               ; preds = %12, %9, %1
  br label %19

16:                                               ; preds = %12
  %17 = load ptr, ptr %2, align 8
  call void @_Z15luaL_typeerrorLP9lua_StateiPKc(ptr noundef %17, i32 noundef 1, ptr noundef @.str.33) #5
  unreachable

18:                                               ; No predecessors!
  br label %19

19:                                               ; preds = %18, %15
  %20 = load ptr, ptr %2, align 8
  %21 = call noundef i32 @_Z13lua_tobooleanP9lua_Statei(ptr noundef %20, i32 noundef 1)
  %22 = icmp ne i32 %21, 0
  %23 = zext i1 %22 to i8
  store i8 %23, ptr %4, align 1
  %24 = load ptr, ptr %2, align 8
  %25 = call noundef ptr @_Z21lua_newuserdatataggedP9lua_Statemi(ptr noundef %24, i64 noundef 0, i32 noundef 129)
  %26 = load i8, ptr %4, align 1
  %27 = trunc i8 %26 to i1
  br i1 %27, label %28, label %32

28:                                               ; preds = %19
  %29 = load ptr, ptr %2, align 8
  call void @_Z15lua_createtableP9lua_Stateii(ptr noundef %29, i32 noundef 0, i32 noundef 0)
  %30 = load ptr, ptr %2, align 8
  %31 = call noundef i32 @_Z16lua_setmetatableP9lua_Statei(ptr noundef %30, i32 noundef -2)
  br label %32

32:                                               ; preds = %28, %19
  ret i32 1
}