; Function Attrs: mustprogress uwtable
define internal noundef i32 @_ZL13luaB_newproxyP9lua_State(ptr noundef %0) #0 {
  %2 = tail call noundef i32 @_Z8lua_typeP9lua_Statei(ptr noundef %0, i32 noundef 1)
  %3 = add i32 %2, 1
  %or.cond3 = icmp ult i32 %3, 3
  br i1 %or.cond3, label %5, label %4

4:                                                ; preds = %1
  tail call void @_Z15luaL_typeerrorLP9lua_StateiPKc(ptr noundef %0, i32 noundef 1, ptr noundef nonnull @.str.33) #9
  unreachable

5:                                                ; preds = %1
  %6 = tail call noundef i32 @_Z13lua_tobooleanP9lua_Statei(ptr noundef %0, i32 noundef 1)
  %.not = icmp eq i32 %6, 0
  %7 = tail call noundef ptr @_Z21lua_newuserdatataggedP9lua_Statemi(ptr noundef %0, i64 noundef 0, i32 noundef 129)
  br i1 %.not, label %10, label %8

8:                                                ; preds = %5
  tail call void @_Z15lua_createtableP9lua_Stateii(ptr noundef %0, i32 noundef 0, i32 noundef 0)
  %9 = tail call noundef i32 @_Z16lua_setmetatableP9lua_Statei(ptr noundef %0, i32 noundef -2)
  br label %10

10:                                               ; preds = %8, %5
  ret i32 1
}